; ModuleID = '22/134.c'
source_filename = "22/134.c"
target datalayout = "e-m:e-p270:32:32-p271:32:32-p272:64:64-i64:64-f80:128-n8:16:32:64-S128"
target triple = "x86_64-pc-linux-gnu"

@.str = private unnamed_addr constant [4 x i8] c"No\0A\00", align 1
@.str.1 = private unnamed_addr constant [4 x i8] c"%d\0A\00", align 1

; Function Attrs: noinline nounwind uwtable
define dso_local void @main() #0 {
  %1 = alloca [1500 x i8], align 16
  %2 = alloca [300 x i32], align 16
  %3 = alloca i32, align 4
  %4 = alloca i32, align 4
  %5 = alloca i32, align 4
  %6 = alloca i32, align 4
  %7 = alloca i32, align 4
  %8 = alloca i32, align 4
  %9 = bitcast [300 x i32]* %2 to i8*
  call void @llvm.memset.p0i8.i64(i8* align 16 %9, i8 0, i64 1200, i1 false)
  store i32 0, i32* %3, align 4
  store i32 0, i32* %4, align 4
  store i32 1, i32* %5, align 4
  %10 = getelementptr inbounds [1500 x i8], [1500 x i8]* %1, i64 0, i64 0
  %11 = call i32 (i8*, ...) bitcast (i32 (...)* @gets to i32 (i8*, ...)*)(i8* %10)
  %12 = getelementptr inbounds [1500 x i8], [1500 x i8]* %1, i64 0, i64 0
  %13 = call i64 @strlen(i8* %12) #4
  %14 = trunc i64 %13 to i32
  store i32 %14, i32* %6, align 4
  %15 = load i32, i32* %6, align 4
  %16 = sub nsw i32 %15, 1
  store i32 %16, i32* %3, align 4
  br label %17

17:                                               ; preds = %96, %0
  %18 = load i32, i32* %3, align 4
  %19 = icmp sge i32 %18, 0
  br i1 %19, label %20, label %99

20:                                               ; preds = %17
  %21 = load i32, i32* %3, align 4
  %22 = sext i32 %21 to i64
  %23 = getelementptr inbounds [1500 x i8], [1500 x i8]* %1, i64 0, i64 %22
  %24 = load i8, i8* %23, align 1
  %25 = sext i8 %24 to i32
  %26 = icmp sgt i32 %25, 47
  br i1 %26, label %27, label %61

27:                                               ; preds = %20
  %28 = load i32, i32* %3, align 4
  %29 = sext i32 %28 to i64
  %30 = getelementptr inbounds [1500 x i8], [1500 x i8]* %1, i64 0, i64 %29
  %31 = load i8, i8* %30, align 1
  %32 = sext i8 %31 to i32
  %33 = icmp slt i32 %32, 58
  br i1 %33, label %34, label %61

34:                                               ; preds = %27
  %35 = load i32, i32* %3, align 4
  %36 = sub nsw i32 %35, 1
  %37 = sext i32 %36 to i64
  %38 = getelementptr inbounds [1500 x i8], [1500 x i8]* %1, i64 0, i64 %37
  %39 = load i8, i8* %38, align 1
  %40 = sext i8 %39 to i32
  %41 = icmp eq i32 %40, 44
  br i1 %41, label %42, label %61

42:                                               ; preds = %34
  %43 = load i32, i32* %4, align 4
  %44 = sext i32 %43 to i64
  %45 = getelementptr inbounds [300 x i32], [300 x i32]* %2, i64 0, i64 %44
  %46 = load i32, i32* %45, align 4
  %47 = load i32, i32* %3, align 4
  %48 = sext i32 %47 to i64
  %49 = getelementptr inbounds [1500 x i8], [1500 x i8]* %1, i64 0, i64 %48
  %50 = load i8, i8* %49, align 1
  %51 = sext i8 %50 to i32
  %52 = sub nsw i32 %51, 48
  %53 = load i32, i32* %5, align 4
  %54 = mul nsw i32 %52, %53
  %55 = add nsw i32 %46, %54
  %56 = load i32, i32* %4, align 4
  %57 = sext i32 %56 to i64
  %58 = getelementptr inbounds [300 x i32], [300 x i32]* %2, i64 0, i64 %57
  store i32 %55, i32* %58, align 4
  %59 = load i32, i32* %4, align 4
  %60 = add nsw i32 %59, 1
  store i32 %60, i32* %4, align 4
  store i32 1, i32* %5, align 4
  br label %95

61:                                               ; preds = %34, %27, %20
  %62 = load i32, i32* %3, align 4
  %63 = sext i32 %62 to i64
  %64 = getelementptr inbounds [1500 x i8], [1500 x i8]* %1, i64 0, i64 %63
  %65 = load i8, i8* %64, align 1
  %66 = sext i8 %65 to i32
  %67 = icmp sgt i32 %66, 47
  br i1 %67, label %68, label %94

68:                                               ; preds = %61
  %69 = load i32, i32* %3, align 4
  %70 = sext i32 %69 to i64
  %71 = getelementptr inbounds [1500 x i8], [1500 x i8]* %1, i64 0, i64 %70
  %72 = load i8, i8* %71, align 1
  %73 = sext i8 %72 to i32
  %74 = icmp slt i32 %73, 58
  br i1 %74, label %75, label %94

75:                                               ; preds = %68
  %76 = load i32, i32* %4, align 4
  %77 = sext i32 %76 to i64
  %78 = getelementptr inbounds [300 x i32], [300 x i32]* %2, i64 0, i64 %77
  %79 = load i32, i32* %78, align 4
  %80 = load i32, i32* %3, align 4
  %81 = sext i32 %80 to i64
  %82 = getelementptr inbounds [1500 x i8], [1500 x i8]* %1, i64 0, i64 %81
  %83 = load i8, i8* %82, align 1
  %84 = sext i8 %83 to i32
  %85 = sub nsw i32 %84, 48
  %86 = load i32, i32* %5, align 4
  %87 = mul nsw i32 %85, %86
  %88 = add nsw i32 %79, %87
  %89 = load i32, i32* %4, align 4
  %90 = sext i32 %89 to i64
  %91 = getelementptr inbounds [300 x i32], [300 x i32]* %2, i64 0, i64 %90
  store i32 %88, i32* %91, align 4
  %92 = load i32, i32* %5, align 4
  %93 = mul nsw i32 %92, 10
  store i32 %93, i32* %5, align 4
  br label %94

94:                                               ; preds = %75, %68, %61
  br label %95

95:                                               ; preds = %94, %42
  br label %96

96:                                               ; preds = %95
  %97 = load i32, i32* %3, align 4
  %98 = add nsw i32 %97, -1
  store i32 %98, i32* %3, align 4
  br label %17

99:                                               ; preds = %17
  store i32 0, i32* %3, align 4
  br label %100

100:                                              ; preds = %145, %99
  %101 = load i32, i32* %3, align 4
  %102 = load i32, i32* %4, align 4
  %103 = icmp sle i32 %101, %102
  br i1 %103, label %104, label %148

104:                                              ; preds = %100
  store i32 0, i32* %7, align 4
  br label %105

105:                                              ; preds = %141, %104
  %106 = load i32, i32* %7, align 4
  %107 = load i32, i32* %4, align 4
  %108 = load i32, i32* %3, align 4
  %109 = sub nsw i32 %107, %108
  %110 = icmp sle i32 %106, %109
  br i1 %110, label %111, label %144

111:                                              ; preds = %105
  %112 = load i32, i32* %7, align 4
  %113 = sext i32 %112 to i64
  %114 = getelementptr inbounds [300 x i32], [300 x i32]* %2, i64 0, i64 %113
  %115 = load i32, i32* %114, align 4
  %116 = load i32, i32* %7, align 4
  %117 = add nsw i32 %116, 1
  %118 = sext i32 %117 to i64
  %119 = getelementptr inbounds [300 x i32], [300 x i32]* %2, i64 0, i64 %118
  %120 = load i32, i32* %119, align 4
  %121 = icmp slt i32 %115, %120
  br i1 %121, label %122, label %140

122:                                              ; preds = %111
  %123 = load i32, i32* %7, align 4
  %124 = sext i32 %123 to i64
  %125 = getelementptr inbounds [300 x i32], [300 x i32]* %2, i64 0, i64 %124
  %126 = load i32, i32* %125, align 4
  store i32 %126, i32* %8, align 4
  %127 = load i32, i32* %7, align 4
  %128 = add nsw i32 %127, 1
  %129 = sext i32 %128 to i64
  %130 = getelementptr inbounds [300 x i32], [300 x i32]* %2, i64 0, i64 %129
  %131 = load i32, i32* %130, align 4
  %132 = load i32, i32* %7, align 4
  %133 = sext i32 %132 to i64
  %134 = getelementptr inbounds [300 x i32], [300 x i32]* %2, i64 0, i64 %133
  store i32 %131, i32* %134, align 4
  %135 = load i32, i32* %8, align 4
  %136 = load i32, i32* %7, align 4
  %137 = add nsw i32 %136, 1
  %138 = sext i32 %137 to i64
  %139 = getelementptr inbounds [300 x i32], [300 x i32]* %2, i64 0, i64 %138
  store i32 %135, i32* %139, align 4
  br label %140

140:                                              ; preds = %122, %111
  br label %141

141:                                              ; preds = %140
  %142 = load i32, i32* %7, align 4
  %143 = add nsw i32 %142, 1
  store i32 %143, i32* %7, align 4
  br label %105

144:                                              ; preds = %105
  br label %145

145:                                              ; preds = %144
  %146 = load i32, i32* %3, align 4
  %147 = add nsw i32 %146, 1
  store i32 %147, i32* %3, align 4
  br label %100

148:                                              ; preds = %100
  %149 = load i32, i32* %4, align 4
  %150 = icmp eq i32 %149, 0
  br i1 %150, label %159, label %151

151:                                              ; preds = %148
  %152 = getelementptr inbounds [300 x i32], [300 x i32]* %2, i64 0, i64 0
  %153 = load i32, i32* %152, align 16
  %154 = load i32, i32* %4, align 4
  %155 = sext i32 %154 to i64
  %156 = getelementptr inbounds [300 x i32], [300 x i32]* %2, i64 0, i64 %155
  %157 = load i32, i32* %156, align 4
  %158 = icmp eq i32 %153, %157
  br i1 %158, label %159, label %161

159:                                              ; preds = %151, %148
  %160 = call i32 (i8*, ...) @printf(i8* getelementptr inbounds ([4 x i8], [4 x i8]* @.str, i64 0, i64 0))
  br label %185

161:                                              ; preds = %151
  store i32 1, i32* %3, align 4
  br label %162

162:                                              ; preds = %181, %161
  %163 = load i32, i32* %3, align 4
  %164 = load i32, i32* %4, align 4
  %165 = icmp sle i32 %163, %164
  br i1 %165, label %166, label %184

166:                                              ; preds = %162
  %167 = load i32, i32* %3, align 4
  %168 = sext i32 %167 to i64
  %169 = getelementptr inbounds [300 x i32], [300 x i32]* %2, i64 0, i64 %168
  %170 = load i32, i32* %169, align 4
  %171 = getelementptr inbounds [300 x i32], [300 x i32]* %2, i64 0, i64 0
  %172 = load i32, i32* %171, align 16
  %173 = icmp ne i32 %170, %172
  br i1 %173, label %174, label %180

174:                                              ; preds = %166
  %175 = load i32, i32* %3, align 4
  %176 = sext i32 %175 to i64
  %177 = getelementptr inbounds [300 x i32], [300 x i32]* %2, i64 0, i64 %176
  %178 = load i32, i32* %177, align 4
  %179 = call i32 (i8*, ...) @printf(i8* getelementptr inbounds ([4 x i8], [4 x i8]* @.str.1, i64 0, i64 0), i32 %178)
  br label %184

180:                                              ; preds = %166
  br label %181

181:                                              ; preds = %180
  %182 = load i32, i32* %3, align 4
  %183 = add nsw i32 %182, 1
  store i32 %183, i32* %3, align 4
  br label %162

184:                                              ; preds = %174, %162
  br label %185

185:                                              ; preds = %184, %159
  ret void
}

; Function Attrs: argmemonly nounwind willreturn
declare void @llvm.memset.p0i8.i64(i8* nocapture writeonly, i8, i64, i1 immarg) #1

declare dso_local i32 @gets(...) #2

; Function Attrs: nounwind readonly
declare dso_local i64 @strlen(i8*) #3

declare dso_local i32 @printf(i8*, ...) #2


!llvm.module.flags = !{!0}
!llvm.ident = !{!1}

!0 = !{i32 1, !"wchar_size", i32 4}
!1 = !{!"clang version 10.0.0-4ubuntu1 "}
